(lp0
S'poi'
p1
aS'total_payments'
p2
aS'exercised_stock_options'
p3
aS'bonus'
p4
aS'restricted_stock'
p5
aS'shared_receipt_with_poi'
p6
aS'expenses'
p7
aS'other'
p8
aS'from_this_person_to_poi'
p9
aS'from_poi_to_this_person'
p10
aS'from_messages'
p11
aS'to_messages'
p12
aS'ratio_bonus_to_ex_stock'
p13
aS'from_this_person_to_poi_pctof_from'
p14
aS'from_poi_to_this_person_pctof_to'
p15
aS'ratio_restrc_stock_to_total_pmnt'
p16
aS'ratio_ex_stock_to_total_pmnt'
p17
a.